
printer.elf:     file format elf32-avr

Sections:
Idx Name          Size      VMA       LMA       File off  Algn
  0 .text         000008de  00000000  00000000  00000094  2**1
                  CONTENTS, ALLOC, LOAD, READONLY, CODE
  1 .data         0000000c  00800060  000008de  00000972  2**0
                  CONTENTS, ALLOC, LOAD, DATA
  2 .bss          000002bd  0080006c  0080006c  0000097e  2**0
                  ALLOC
  3 .stab         00000abc  00000000  00000000  00000980  2**2
                  CONTENTS, READONLY, DEBUGGING
  4 .stabstr      000001a8  00000000  00000000  0000143c  2**0
                  CONTENTS, READONLY, DEBUGGING
  5 .debug_aranges 00000080  00000000  00000000  000015e8  2**3
                  CONTENTS, READONLY, DEBUGGING
  6 .debug_info   00000325  00000000  00000000  00001668  2**0
                  CONTENTS, READONLY, DEBUGGING
  7 .debug_abbrev 000000b1  00000000  00000000  0000198d  2**0
                  CONTENTS, READONLY, DEBUGGING
  8 .debug_line   00000227  00000000  00000000  00001a3e  2**0
                  CONTENTS, READONLY, DEBUGGING
  9 .debug_frame  00000024  00000000  00000000  00001c68  2**2
                  CONTENTS, READONLY, DEBUGGING
 10 .debug_str    0000007d  00000000  00000000  00001c8c  2**0
                  CONTENTS, READONLY, DEBUGGING
 11 .debug_loc    00000030  00000000  00000000  00001d09  2**0
                  CONTENTS, READONLY, DEBUGGING
 12 .debug_ranges 00000010  00000000  00000000  00001d39  2**0
                  CONTENTS, READONLY, DEBUGGING

Disassembly of section .text:

00000000 <__vectors>:
   0:	0c 94 2a 00 	jmp	0x54	; 0x54 <__ctors_end>
   4:	0c 94 47 00 	jmp	0x8e	; 0x8e <__bad_interrupt>
   8:	0c 94 47 00 	jmp	0x8e	; 0x8e <__bad_interrupt>
   c:	0c 94 47 00 	jmp	0x8e	; 0x8e <__bad_interrupt>
  10:	0c 94 47 00 	jmp	0x8e	; 0x8e <__bad_interrupt>
  14:	0c 94 47 00 	jmp	0x8e	; 0x8e <__bad_interrupt>
  18:	0c 94 47 00 	jmp	0x8e	; 0x8e <__bad_interrupt>
  1c:	0c 94 47 00 	jmp	0x8e	; 0x8e <__bad_interrupt>
  20:	0c 94 47 00 	jmp	0x8e	; 0x8e <__bad_interrupt>
  24:	0c 94 47 00 	jmp	0x8e	; 0x8e <__bad_interrupt>
  28:	0c 94 47 00 	jmp	0x8e	; 0x8e <__bad_interrupt>
  2c:	0c 94 bf 02 	jmp	0x57e	; 0x57e <__vector_11>
  30:	0c 94 47 00 	jmp	0x8e	; 0x8e <__bad_interrupt>
  34:	0c 94 9d 00 	jmp	0x13a	; 0x13a <__vector_13>
  38:	0c 94 c8 00 	jmp	0x190	; 0x190 <__vector_14>
  3c:	0c 94 47 00 	jmp	0x8e	; 0x8e <__bad_interrupt>
  40:	0c 94 47 00 	jmp	0x8e	; 0x8e <__bad_interrupt>
  44:	0c 94 47 00 	jmp	0x8e	; 0x8e <__bad_interrupt>
  48:	0c 94 47 00 	jmp	0x8e	; 0x8e <__bad_interrupt>
  4c:	0c 94 47 00 	jmp	0x8e	; 0x8e <__bad_interrupt>
  50:	0c 94 47 00 	jmp	0x8e	; 0x8e <__bad_interrupt>

00000054 <__ctors_end>:
  54:	11 24       	eor	r1, r1
  56:	1f be       	out	0x3f, r1	; 63
  58:	cf e5       	ldi	r28, 0x5F	; 95
  5a:	d8 e0       	ldi	r29, 0x08	; 8
  5c:	de bf       	out	0x3e, r29	; 62
  5e:	cd bf       	out	0x3d, r28	; 61

00000060 <__do_copy_data>:
  60:	10 e0       	ldi	r17, 0x00	; 0
  62:	a0 e6       	ldi	r26, 0x60	; 96
  64:	b0 e0       	ldi	r27, 0x00	; 0
  66:	ee ed       	ldi	r30, 0xDE	; 222
  68:	f8 e0       	ldi	r31, 0x08	; 8
  6a:	02 c0       	rjmp	.+4      	; 0x70 <__do_copy_data+0x10>
  6c:	05 90       	lpm	r0, Z+
  6e:	0d 92       	st	X+, r0
  70:	ac 36       	cpi	r26, 0x6C	; 108
  72:	b1 07       	cpc	r27, r17
  74:	d9 f7       	brne	.-10     	; 0x6c <__do_copy_data+0xc>

00000076 <__do_clear_bss>:
  76:	13 e0       	ldi	r17, 0x03	; 3
  78:	ac e6       	ldi	r26, 0x6C	; 108
  7a:	b0 e0       	ldi	r27, 0x00	; 0
  7c:	01 c0       	rjmp	.+2      	; 0x80 <.do_clear_bss_start>

0000007e <.do_clear_bss_loop>:
  7e:	1d 92       	st	X+, r1

00000080 <.do_clear_bss_start>:
  80:	a9 32       	cpi	r26, 0x29	; 41
  82:	b1 07       	cpc	r27, r17
  84:	e1 f7       	brne	.-8      	; 0x7e <.do_clear_bss_loop>
  86:	0e 94 9e 03 	call	0x73c	; 0x73c <main>
  8a:	0c 94 6d 04 	jmp	0x8da	; 0x8da <_exit>

0000008e <__bad_interrupt>:
  8e:	0c 94 00 00 	jmp	0	; 0x0 <__vectors>

00000092 <serial_init>:
  92:	1b b8       	out	0x0b, r1	; 11
  94:	8a b1       	in	r24, 0x0a	; 10
  96:	88 69       	ori	r24, 0x98	; 152
  98:	8a b9       	out	0x0a, r24	; 10
  9a:	80 b5       	in	r24, 0x20	; 32
  9c:	86 68       	ori	r24, 0x86	; 134
  9e:	80 bd       	out	0x20, r24	; 32
  a0:	10 bc       	out	0x20, r1	; 32
  a2:	83 e3       	ldi	r24, 0x33	; 51
  a4:	89 b9       	out	0x09, r24	; 9
  a6:	10 92 90 00 	sts	0x0090, r1
  aa:	10 92 8f 00 	sts	0x008F, r1
  ae:	10 92 8e 00 	sts	0x008E, r1
  b2:	10 92 8d 00 	sts	0x008D, r1
  b6:	10 92 8c 00 	sts	0x008C, r1
  ba:	10 92 8b 00 	sts	0x008B, r1
  be:	08 95       	ret

000000c0 <serial_get>:
  c0:	f8 94       	cli
  c2:	80 91 8e 00 	lds	r24, 0x008E
  c6:	88 23       	and	r24, r24
  c8:	b9 f0       	breq	.+46     	; 0xf8 <serial_get+0x38>
  ca:	e0 91 8f 00 	lds	r30, 0x008F
  ce:	f0 e0       	ldi	r31, 0x00	; 0
  d0:	e0 5f       	subi	r30, 0xF0	; 240
  d2:	fd 4f       	sbci	r31, 0xFD	; 253
  d4:	80 81       	ld	r24, Z
  d6:	90 91 8f 00 	lds	r25, 0x008F
  da:	9f 5f       	subi	r25, 0xFF	; 255
  dc:	90 93 8f 00 	sts	0x008F, r25
  e0:	90 91 8f 00 	lds	r25, 0x008F
  e4:	9f 3f       	cpi	r25, 0xFF	; 255
  e6:	11 f4       	brne	.+4      	; 0xec <serial_get+0x2c>
  e8:	10 92 8f 00 	sts	0x008F, r1
  ec:	90 91 8e 00 	lds	r25, 0x008E
  f0:	91 50       	subi	r25, 0x01	; 1
  f2:	90 93 8e 00 	sts	0x008E, r25
  f6:	01 c0       	rjmp	.+2      	; 0xfa <serial_get+0x3a>
  f8:	80 e0       	ldi	r24, 0x00	; 0
  fa:	78 94       	sei
  fc:	08 95       	ret

000000fe <serial_send>:
  fe:	f8 94       	cli
 100:	90 91 8b 00 	lds	r25, 0x008B
 104:	97 fd       	sbrc	r25, 7
 106:	17 c0       	rjmp	.+46     	; 0x136 <serial_send+0x38>
 108:	e0 91 8d 00 	lds	r30, 0x008D
 10c:	f0 e0       	ldi	r31, 0x00	; 0
 10e:	e0 57       	subi	r30, 0x70	; 112
 110:	fe 4f       	sbci	r31, 0xFE	; 254
 112:	80 83       	st	Z, r24
 114:	80 91 8d 00 	lds	r24, 0x008D
 118:	8f 5f       	subi	r24, 0xFF	; 255
 11a:	80 93 8d 00 	sts	0x008D, r24
 11e:	80 91 8d 00 	lds	r24, 0x008D
 122:	80 38       	cpi	r24, 0x80	; 128
 124:	11 f4       	brne	.+4      	; 0x12a <serial_send+0x2c>
 126:	10 92 8d 00 	sts	0x008D, r1
 12a:	80 91 8b 00 	lds	r24, 0x008B
 12e:	8f 5f       	subi	r24, 0xFF	; 255
 130:	80 93 8b 00 	sts	0x008B, r24
 134:	55 9a       	sbi	0x0a, 5	; 10
 136:	78 94       	sei
 138:	08 95       	ret

0000013a <__vector_13>:
 13a:	1f 92       	push	r1
 13c:	0f 92       	push	r0
 13e:	0f b6       	in	r0, 0x3f	; 63
 140:	0f 92       	push	r0
 142:	11 24       	eor	r1, r1
 144:	8f 93       	push	r24
 146:	ef 93       	push	r30
 148:	ff 93       	push	r31
 14a:	80 91 8e 00 	lds	r24, 0x008E
 14e:	8f 3f       	cpi	r24, 0xFF	; 255
 150:	b9 f0       	breq	.+46     	; 0x180 <__vector_13+0x46>
 152:	e0 91 90 00 	lds	r30, 0x0090
 156:	f0 e0       	ldi	r31, 0x00	; 0
 158:	8c b1       	in	r24, 0x0c	; 12
 15a:	e0 5f       	subi	r30, 0xF0	; 240
 15c:	fd 4f       	sbci	r31, 0xFD	; 253
 15e:	80 83       	st	Z, r24
 160:	80 91 90 00 	lds	r24, 0x0090
 164:	8f 5f       	subi	r24, 0xFF	; 255
 166:	80 93 90 00 	sts	0x0090, r24
 16a:	80 91 90 00 	lds	r24, 0x0090
 16e:	8f 3f       	cpi	r24, 0xFF	; 255
 170:	11 f4       	brne	.+4      	; 0x176 <__vector_13+0x3c>
 172:	10 92 90 00 	sts	0x0090, r1
 176:	80 91 8e 00 	lds	r24, 0x008E
 17a:	8f 5f       	subi	r24, 0xFF	; 255
 17c:	80 93 8e 00 	sts	0x008E, r24
 180:	ff 91       	pop	r31
 182:	ef 91       	pop	r30
 184:	8f 91       	pop	r24
 186:	0f 90       	pop	r0
 188:	0f be       	out	0x3f, r0	; 63
 18a:	0f 90       	pop	r0
 18c:	1f 90       	pop	r1
 18e:	18 95       	reti

00000190 <__vector_14>:
 190:	1f 92       	push	r1
 192:	0f 92       	push	r0
 194:	0f b6       	in	r0, 0x3f	; 63
 196:	0f 92       	push	r0
 198:	11 24       	eor	r1, r1
 19a:	8f 93       	push	r24
 19c:	ef 93       	push	r30
 19e:	ff 93       	push	r31
 1a0:	80 91 8b 00 	lds	r24, 0x008B
 1a4:	88 23       	and	r24, r24
 1a6:	01 f1       	breq	.+64     	; 0x1e8 <__vector_14+0x58>
 1a8:	80 91 8b 00 	lds	r24, 0x008B
 1ac:	88 23       	and	r24, r24
 1ae:	e1 f0       	breq	.+56     	; 0x1e8 <__vector_14+0x58>
 1b0:	e0 91 8c 00 	lds	r30, 0x008C
 1b4:	f0 e0       	ldi	r31, 0x00	; 0
 1b6:	e0 57       	subi	r30, 0x70	; 112
 1b8:	fe 4f       	sbci	r31, 0xFE	; 254
 1ba:	80 81       	ld	r24, Z
 1bc:	8c b9       	out	0x0c, r24	; 12
 1be:	80 91 8c 00 	lds	r24, 0x008C
 1c2:	8f 5f       	subi	r24, 0xFF	; 255
 1c4:	80 93 8c 00 	sts	0x008C, r24
 1c8:	80 91 8c 00 	lds	r24, 0x008C
 1cc:	80 38       	cpi	r24, 0x80	; 128
 1ce:	11 f4       	brne	.+4      	; 0x1d4 <__vector_14+0x44>
 1d0:	10 92 8c 00 	sts	0x008C, r1
 1d4:	80 91 8b 00 	lds	r24, 0x008B
 1d8:	81 50       	subi	r24, 0x01	; 1
 1da:	80 93 8b 00 	sts	0x008B, r24
 1de:	80 91 8b 00 	lds	r24, 0x008B
 1e2:	88 23       	and	r24, r24
 1e4:	09 f4       	brne	.+2      	; 0x1e8 <__vector_14+0x58>
 1e6:	55 98       	cbi	0x0a, 5	; 10
 1e8:	ff 91       	pop	r31
 1ea:	ef 91       	pop	r30
 1ec:	8f 91       	pop	r24
 1ee:	0f 90       	pop	r0
 1f0:	0f be       	out	0x3f, r0	; 63
 1f2:	0f 90       	pop	r0
 1f4:	1f 90       	pop	r1
 1f6:	18 95       	reti

000001f8 <stepper_init>:
 1f8:	fc 01       	movw	r30, r24
 1fa:	db 01       	movw	r26, r22
 1fc:	40 83       	st	Z, r20
 1fe:	77 83       	std	Z+7, r23	; 0x07
 200:	66 83       	std	Z+6, r22	; 0x06
 202:	13 82       	std	Z+3, r1	; 0x03
 204:	12 82       	std	Z+2, r1	; 0x02
 206:	15 82       	std	Z+5, r1	; 0x05
 208:	14 82       	std	Z+4, r1	; 0x04
 20a:	11 82       	std	Z+1, r1	; 0x01
 20c:	80 91 64 00 	lds	r24, 0x0064
 210:	40 ff       	sbrs	r20, 0
 212:	02 c0       	rjmp	.+4      	; 0x218 <stepper_init+0x20>
 214:	82 95       	swap	r24
 216:	80 7f       	andi	r24, 0xF0	; 240
 218:	8c 93       	st	X, r24
 21a:	08 95       	ret

0000021c <stepper_do_steps>:
 21c:	fc 01       	movw	r30, r24
 21e:	8f b7       	in	r24, 0x3f	; 63
 220:	f8 94       	cli
 222:	13 82       	std	Z+3, r1	; 0x03
 224:	12 82       	std	Z+2, r1	; 0x02
 226:	75 83       	std	Z+5, r23	; 0x05
 228:	64 83       	std	Z+4, r22	; 0x04
 22a:	8f bf       	out	0x3f, r24	; 63
 22c:	08 95       	ret

0000022e <stepper_add_steps_to_do>:
 22e:	fc 01       	movw	r30, r24
 230:	2f b7       	in	r18, 0x3f	; 63
 232:	f8 94       	cli
 234:	84 81       	ldd	r24, Z+4	; 0x04
 236:	95 81       	ldd	r25, Z+5	; 0x05
 238:	86 0f       	add	r24, r22
 23a:	97 1f       	adc	r25, r23
 23c:	95 83       	std	Z+5, r25	; 0x05
 23e:	84 83       	std	Z+4, r24	; 0x04
 240:	2f bf       	out	0x3f, r18	; 63
 242:	08 95       	ret

00000244 <stepper_set_direction>:
 244:	fc 01       	movw	r30, r24
 246:	80 81       	ld	r24, Z
 248:	67 ff       	sbrs	r22, 7
 24a:	02 c0       	rjmp	.+4      	; 0x250 <stepper_set_direction+0xc>
 24c:	8d 7f       	andi	r24, 0xFD	; 253
 24e:	01 c0       	rjmp	.+2      	; 0x252 <stepper_set_direction+0xe>
 250:	82 60       	ori	r24, 0x02	; 2
 252:	80 83       	st	Z, r24
 254:	08 95       	ret

00000256 <stepper_stop>:
 256:	fc 01       	movw	r30, r24
 258:	9f b7       	in	r25, 0x3f	; 63
 25a:	f8 94       	cli
 25c:	80 81       	ld	r24, Z
 25e:	a6 81       	ldd	r26, Z+6	; 0x06
 260:	b7 81       	ldd	r27, Z+7	; 0x07
 262:	80 ff       	sbrs	r24, 0
 264:	03 c0       	rjmp	.+6      	; 0x26c <stepper_stop+0x16>
 266:	8c 91       	ld	r24, X
 268:	8f 70       	andi	r24, 0x0F	; 15
 26a:	02 c0       	rjmp	.+4      	; 0x270 <stepper_stop+0x1a>
 26c:	8c 91       	ld	r24, X
 26e:	80 7f       	andi	r24, 0xF0	; 240
 270:	8c 93       	st	X, r24
 272:	13 82       	std	Z+3, r1	; 0x03
 274:	12 82       	std	Z+2, r1	; 0x02
 276:	15 82       	std	Z+5, r1	; 0x05
 278:	14 82       	std	Z+4, r1	; 0x04
 27a:	9f bf       	out	0x3f, r25	; 63
 27c:	08 95       	ret

0000027e <stepper_is_ready>:
 27e:	fc 01       	movw	r30, r24
 280:	9f b7       	in	r25, 0x3f	; 63
 282:	f8 94       	cli
 284:	81 e0       	ldi	r24, 0x01	; 1
 286:	42 81       	ldd	r20, Z+2	; 0x02
 288:	53 81       	ldd	r21, Z+3	; 0x03
 28a:	24 81       	ldd	r18, Z+4	; 0x04
 28c:	35 81       	ldd	r19, Z+5	; 0x05
 28e:	42 17       	cp	r20, r18
 290:	53 07       	cpc	r21, r19
 292:	08 f4       	brcc	.+2      	; 0x296 <stepper_is_ready+0x18>
 294:	80 e0       	ldi	r24, 0x00	; 0
 296:	9f bf       	out	0x3f, r25	; 63
 298:	08 95       	ret

0000029a <stepper_update>:
 29a:	1f 93       	push	r17
 29c:	cf 93       	push	r28
 29e:	df 93       	push	r29
 2a0:	ec 01       	movw	r28, r24
 2a2:	1f b7       	in	r17, 0x3f	; 63
 2a4:	f8 94       	cli
 2a6:	0e 94 3f 01 	call	0x27e	; 0x27e <stepper_is_ready>
 2aa:	88 23       	and	r24, r24
 2ac:	29 f0       	breq	.+10     	; 0x2b8 <stepper_update+0x1e>
 2ae:	ce 01       	movw	r24, r28
 2b0:	0e 94 2b 01 	call	0x256	; 0x256 <stepper_stop>
 2b4:	1f bf       	out	0x3f, r17	; 63
 2b6:	3e c0       	rjmp	.+124    	; 0x334 <stepper_update+0x9a>
 2b8:	1f bf       	out	0x3f, r17	; 63
 2ba:	88 81       	ld	r24, Y
 2bc:	e1 e0       	ldi	r30, 0x01	; 1
 2be:	81 fd       	sbrc	r24, 1
 2c0:	e0 e0       	ldi	r30, 0x00	; 0
 2c2:	ae 81       	ldd	r26, Y+6	; 0x06
 2c4:	bf 81       	ldd	r27, Y+7	; 0x07
 2c6:	80 ff       	sbrs	r24, 0
 2c8:	14 c0       	rjmp	.+40     	; 0x2f2 <stepper_update+0x58>
 2ca:	8c 91       	ld	r24, X
 2cc:	8f 70       	andi	r24, 0x0F	; 15
 2ce:	8c 93       	st	X, r24
 2d0:	ae 81       	ldd	r26, Y+6	; 0x06
 2d2:	bf 81       	ldd	r27, Y+7	; 0x07
 2d4:	9c 91       	ld	r25, X
 2d6:	f0 e0       	ldi	r31, 0x00	; 0
 2d8:	89 81       	ldd	r24, Y+1	; 0x01
 2da:	ee 0f       	add	r30, r30
 2dc:	ff 1f       	adc	r31, r31
 2de:	ee 0f       	add	r30, r30
 2e0:	ff 1f       	adc	r31, r31
 2e2:	e8 0f       	add	r30, r24
 2e4:	f1 1d       	adc	r31, r1
 2e6:	ec 59       	subi	r30, 0x9C	; 156
 2e8:	ff 4f       	sbci	r31, 0xFF	; 255
 2ea:	80 81       	ld	r24, Z
 2ec:	82 95       	swap	r24
 2ee:	80 7f       	andi	r24, 0xF0	; 240
 2f0:	11 c0       	rjmp	.+34     	; 0x314 <stepper_update+0x7a>
 2f2:	8c 91       	ld	r24, X
 2f4:	80 7f       	andi	r24, 0xF0	; 240
 2f6:	8c 93       	st	X, r24
 2f8:	ae 81       	ldd	r26, Y+6	; 0x06
 2fa:	bf 81       	ldd	r27, Y+7	; 0x07
 2fc:	9c 91       	ld	r25, X
 2fe:	f0 e0       	ldi	r31, 0x00	; 0
 300:	89 81       	ldd	r24, Y+1	; 0x01
 302:	ee 0f       	add	r30, r30
 304:	ff 1f       	adc	r31, r31
 306:	ee 0f       	add	r30, r30
 308:	ff 1f       	adc	r31, r31
 30a:	e8 0f       	add	r30, r24
 30c:	f1 1d       	adc	r31, r1
 30e:	ec 59       	subi	r30, 0x9C	; 156
 310:	ff 4f       	sbci	r31, 0xFF	; 255
 312:	80 81       	ld	r24, Z
 314:	89 2b       	or	r24, r25
 316:	8c 93       	st	X, r24
 318:	89 81       	ldd	r24, Y+1	; 0x01
 31a:	8f 5f       	subi	r24, 0xFF	; 255
 31c:	89 83       	std	Y+1, r24	; 0x01
 31e:	84 30       	cpi	r24, 0x04	; 4
 320:	48 f0       	brcs	.+18     	; 0x334 <stepper_update+0x9a>
 322:	19 82       	std	Y+1, r1	; 0x01
 324:	2f b7       	in	r18, 0x3f	; 63
 326:	f8 94       	cli
 328:	8a 81       	ldd	r24, Y+2	; 0x02
 32a:	9b 81       	ldd	r25, Y+3	; 0x03
 32c:	01 96       	adiw	r24, 0x01	; 1
 32e:	9b 83       	std	Y+3, r25	; 0x03
 330:	8a 83       	std	Y+2, r24	; 0x02
 332:	2f bf       	out	0x3f, r18	; 63
 334:	df 91       	pop	r29
 336:	cf 91       	pop	r28
 338:	1f 91       	pop	r17
 33a:	08 95       	ret

0000033c <init_stepper_control_timer>:
 33c:	89 b7       	in	r24, 0x39	; 57
 33e:	81 60       	ori	r24, 0x01	; 1
 340:	89 bf       	out	0x39, r24	; 57
 342:	83 b7       	in	r24, 0x33	; 51
 344:	82 60       	ori	r24, 0x02	; 2
 346:	83 bf       	out	0x33, r24	; 51
 348:	08 95       	ret

0000034a <line>:
 34a:	ff 92       	push	r15
 34c:	0f 93       	push	r16
 34e:	1f 93       	push	r17
 350:	cf 93       	push	r28
 352:	df 93       	push	r29
 354:	ec 01       	movw	r28, r24
 356:	fb 01       	movw	r30, r22
 358:	8a 01       	movw	r16, r20
 35a:	a9 01       	movw	r20, r18
 35c:	ff b6       	in	r15, 0x3f	; 63
 35e:	f8 94       	cli
 360:	80 91 62 00 	lds	r24, 0x0062
 364:	99 27       	eor	r25, r25
 366:	87 fd       	sbrc	r24, 7
 368:	90 95       	com	r25
 36a:	c8 9f       	mul	r28, r24
 36c:	d0 01       	movw	r26, r0
 36e:	c9 9f       	mul	r28, r25
 370:	b0 0d       	add	r27, r0
 372:	d8 9f       	mul	r29, r24
 374:	b0 0d       	add	r27, r0
 376:	11 24       	eor	r1, r1
 378:	b0 93 88 00 	sts	0x0088, r27
 37c:	a0 93 87 00 	sts	0x0087, r26
 380:	70 93 86 00 	sts	0x0086, r23
 384:	60 93 85 00 	sts	0x0085, r22
 388:	08 9f       	mul	r16, r24
 38a:	b0 01       	movw	r22, r0
 38c:	09 9f       	mul	r16, r25
 38e:	70 0d       	add	r23, r0
 390:	18 9f       	mul	r17, r24
 392:	70 0d       	add	r23, r0
 394:	11 24       	eor	r1, r1
 396:	70 93 84 00 	sts	0x0084, r23
 39a:	60 93 83 00 	sts	0x0083, r22
 39e:	30 93 82 00 	sts	0x0082, r19
 3a2:	20 93 81 00 	sts	0x0081, r18
 3a6:	cb 01       	movw	r24, r22
 3a8:	8a 1b       	sub	r24, r26
 3aa:	9b 0b       	sbc	r25, r27
 3ac:	97 ff       	sbrs	r25, 7
 3ae:	03 c0       	rjmp	.+6      	; 0x3b6 <line+0x6c>
 3b0:	90 95       	com	r25
 3b2:	81 95       	neg	r24
 3b4:	9f 4f       	sbci	r25, 0xFF	; 255
 3b6:	90 93 80 00 	sts	0x0080, r25
 3ba:	80 93 7f 00 	sts	0x007F, r24
 3be:	9a 01       	movw	r18, r20
 3c0:	2e 1b       	sub	r18, r30
 3c2:	3f 0b       	sbc	r19, r31
 3c4:	37 ff       	sbrs	r19, 7
 3c6:	03 c0       	rjmp	.+6      	; 0x3ce <line+0x84>
 3c8:	30 95       	com	r19
 3ca:	21 95       	neg	r18
 3cc:	3f 4f       	sbci	r19, 0xFF	; 255
 3ce:	30 93 7e 00 	sts	0x007E, r19
 3d2:	20 93 7d 00 	sts	0x007D, r18
 3d6:	a6 17       	cp	r26, r22
 3d8:	b7 07       	cpc	r27, r23
 3da:	14 f4       	brge	.+4      	; 0x3e0 <line+0x96>
 3dc:	61 e0       	ldi	r22, 0x01	; 1
 3de:	01 c0       	rjmp	.+2      	; 0x3e2 <line+0x98>
 3e0:	6f ef       	ldi	r22, 0xFF	; 255
 3e2:	60 93 7c 00 	sts	0x007C, r22
 3e6:	e4 17       	cp	r30, r20
 3e8:	f5 07       	cpc	r31, r21
 3ea:	14 f4       	brge	.+4      	; 0x3f0 <line+0xa6>
 3ec:	41 e0       	ldi	r20, 0x01	; 1
 3ee:	01 c0       	rjmp	.+2      	; 0x3f2 <line+0xa8>
 3f0:	4f ef       	ldi	r20, 0xFF	; 255
 3f2:	40 93 7b 00 	sts	0x007B, r20
 3f6:	82 1b       	sub	r24, r18
 3f8:	93 0b       	sbc	r25, r19
 3fa:	90 93 7a 00 	sts	0x007A, r25
 3fe:	80 93 79 00 	sts	0x0079, r24
 402:	8f ef       	ldi	r24, 0xFF	; 255
 404:	80 93 8a 00 	sts	0x008A, r24
 408:	80 91 6d 00 	lds	r24, 0x006D
 40c:	90 91 6e 00 	lds	r25, 0x006E
 410:	0e 94 22 01 	call	0x244	; 0x244 <stepper_set_direction>
 414:	80 91 6f 00 	lds	r24, 0x006F
 418:	90 91 70 00 	lds	r25, 0x0070
 41c:	60 91 7b 00 	lds	r22, 0x007B
 420:	0e 94 22 01 	call	0x244	; 0x244 <stepper_set_direction>
 424:	ff be       	out	0x3f, r15	; 63
 426:	df 91       	pop	r29
 428:	cf 91       	pop	r28
 42a:	1f 91       	pop	r17
 42c:	0f 91       	pop	r16
 42e:	ff 90       	pop	r15
 430:	08 95       	ret

00000432 <receive_buffer_get_string>:
 432:	cf 93       	push	r28
 434:	e1 e9       	ldi	r30, 0x91	; 145
 436:	f0 e0       	ldi	r31, 0x00	; 0
 438:	8f ef       	ldi	r24, 0xFF	; 255
 43a:	11 92       	st	Z+, r1
 43c:	81 50       	subi	r24, 0x01	; 1
 43e:	e9 f7       	brne	.-6      	; 0x43a <receive_buffer_get_string+0x8>
 440:	c0 e0       	ldi	r28, 0x00	; 0
 442:	0e 94 60 00 	call	0xc0	; 0xc0 <serial_get>
 446:	ec 2f       	mov	r30, r28
 448:	f0 e0       	ldi	r31, 0x00	; 0
 44a:	ef 56       	subi	r30, 0x6F	; 111
 44c:	ff 4f       	sbci	r31, 0xFF	; 255
 44e:	80 83       	st	Z, r24
 450:	88 23       	and	r24, r24
 452:	b9 f3       	breq	.-18     	; 0x442 <receive_buffer_get_string+0x10>
 454:	8b 33       	cpi	r24, 0x3B	; 59
 456:	21 f4       	brne	.+8      	; 0x460 <receive_buffer_get_string+0x2e>
 458:	81 e9       	ldi	r24, 0x91	; 145
 45a:	90 e0       	ldi	r25, 0x00	; 0
 45c:	cf 91       	pop	r28
 45e:	08 95       	ret
 460:	0e 94 7f 00 	call	0xfe	; 0xfe <serial_send>
 464:	cf 5f       	subi	r28, 0xFF	; 255
 466:	ed cf       	rjmp	.-38     	; 0x442 <receive_buffer_get_string+0x10>

00000468 <exec_string>:
 468:	df 92       	push	r13
 46a:	ef 92       	push	r14
 46c:	ff 92       	push	r15
 46e:	0f 93       	push	r16
 470:	1f 93       	push	r17
 472:	cf 93       	push	r28
 474:	df 93       	push	r29
 476:	cd b7       	in	r28, 0x3d	; 61
 478:	de b7       	in	r29, 0x3e	; 62
 47a:	28 97       	sbiw	r28, 0x08	; 8
 47c:	0f b6       	in	r0, 0x3f	; 63
 47e:	f8 94       	cli
 480:	de bf       	out	0x3e, r29	; 62
 482:	0f be       	out	0x3f, r0	; 63
 484:	cd bf       	out	0x3d, r28	; 61
 486:	8c 01       	movw	r16, r24
 488:	00 97       	sbiw	r24, 0x00	; 0
 48a:	09 f4       	brne	.+2      	; 0x48e <exec_string+0x26>
 48c:	6a c0       	rjmp	.+212    	; 0x562 <exec_string+0xfa>
 48e:	80 91 63 00 	lds	r24, 0x0063
 492:	88 23       	and	r24, r24
 494:	e1 f3       	breq	.-8      	; 0x48e <exec_string+0x26>
 496:	78 01       	movw	r14, r16
 498:	5f e7       	ldi	r21, 0x7F	; 127
 49a:	d5 2e       	mov	r13, r21
 49c:	f7 01       	movw	r30, r14
 49e:	81 91       	ld	r24, Z+
 4a0:	7f 01       	movw	r14, r30
 4a2:	0e 94 7f 00 	call	0xfe	; 0xfe <serial_send>
 4a6:	da 94       	dec	r13
 4a8:	c9 f7       	brne	.-14     	; 0x49c <exec_string+0x34>
 4aa:	7e 01       	movw	r14, r28
 4ac:	08 94       	sec
 4ae:	e1 1c       	adc	r14, r1
 4b0:	f1 1c       	adc	r15, r1
 4b2:	88 e0       	ldi	r24, 0x08	; 8
 4b4:	f7 01       	movw	r30, r14
 4b6:	11 92       	st	Z+, r1
 4b8:	8a 95       	dec	r24
 4ba:	e9 f7       	brne	.-6      	; 0x4b6 <exec_string+0x4e>
 4bc:	c8 01       	movw	r24, r16
 4be:	60 e6       	ldi	r22, 0x60	; 96
 4c0:	70 e0       	ldi	r23, 0x00	; 0
 4c2:	0e 94 39 04 	call	0x872	; 0x872 <strtok>
 4c6:	fc 01       	movw	r30, r24
 4c8:	00 97       	sbiw	r24, 0x00	; 0
 4ca:	09 f4       	brne	.+2      	; 0x4ce <exec_string+0x66>
 4cc:	4a c0       	rjmp	.+148    	; 0x562 <exec_string+0xfa>
 4ce:	00 81       	ld	r16, Z
 4d0:	10 e0       	ldi	r17, 0x00	; 0
 4d2:	80 e0       	ldi	r24, 0x00	; 0
 4d4:	90 e0       	ldi	r25, 0x00	; 0
 4d6:	60 e6       	ldi	r22, 0x60	; 96
 4d8:	70 e0       	ldi	r23, 0x00	; 0
 4da:	0e 94 39 04 	call	0x872	; 0x872 <strtok>
 4de:	00 97       	sbiw	r24, 0x00	; 0
 4e0:	61 f0       	breq	.+24     	; 0x4fa <exec_string+0x92>
 4e2:	0e 94 1b 04 	call	0x836	; 0x836 <atoi>
 4e6:	e1 2f       	mov	r30, r17
 4e8:	f0 e0       	ldi	r31, 0x00	; 0
 4ea:	ee 0f       	add	r30, r30
 4ec:	ff 1f       	adc	r31, r31
 4ee:	ee 0d       	add	r30, r14
 4f0:	ff 1d       	adc	r31, r15
 4f2:	91 83       	std	Z+1, r25	; 0x01
 4f4:	80 83       	st	Z, r24
 4f6:	1f 5f       	subi	r17, 0xFF	; 255
 4f8:	ec cf       	rjmp	.-40     	; 0x4d2 <exec_string+0x6a>
 4fa:	0c 34       	cpi	r16, 0x4C	; 76
 4fc:	29 f0       	breq	.+10     	; 0x508 <exec_string+0xa0>
 4fe:	05 35       	cpi	r16, 0x55	; 85
 500:	99 f0       	breq	.+38     	; 0x528 <exec_string+0xc0>
 502:	04 34       	cpi	r16, 0x44	; 68
 504:	71 f5       	brne	.+92     	; 0x562 <exec_string+0xfa>
 506:	10 c0       	rjmp	.+32     	; 0x528 <exec_string+0xc0>
 508:	6b 81       	ldd	r22, Y+3	; 0x03
 50a:	7c 81       	ldd	r23, Y+4	; 0x04
 50c:	4d 81       	ldd	r20, Y+5	; 0x05
 50e:	5e 81       	ldd	r21, Y+6	; 0x06
 510:	2f 81       	ldd	r18, Y+7	; 0x07
 512:	38 85       	ldd	r19, Y+8	; 0x08
 514:	89 81       	ldd	r24, Y+1	; 0x01
 516:	9a 81       	ldd	r25, Y+2	; 0x02
 518:	0e 94 a5 01 	call	0x34a	; 0x34a <line>
 51c:	81 e0       	ldi	r24, 0x01	; 1
 51e:	80 93 89 00 	sts	0x0089, r24
 522:	10 92 63 00 	sts	0x0063, r1
 526:	1d c0       	rjmp	.+58     	; 0x562 <exec_string+0xfa>
 528:	80 91 71 00 	lds	r24, 0x0071
 52c:	90 91 72 00 	lds	r25, 0x0072
 530:	05 35       	cpi	r16, 0x55	; 85
 532:	11 f4       	brne	.+4      	; 0x538 <exec_string+0xd0>
 534:	61 e0       	ldi	r22, 0x01	; 1
 536:	03 c0       	rjmp	.+6      	; 0x53e <exec_string+0xd6>
 538:	04 34       	cpi	r16, 0x44	; 68
 53a:	19 f4       	brne	.+6      	; 0x542 <exec_string+0xda>
 53c:	6f ef       	ldi	r22, 0xFF	; 255
 53e:	0e 94 22 01 	call	0x244	; 0x244 <stepper_set_direction>
 542:	69 81       	ldd	r22, Y+1	; 0x01
 544:	7a 81       	ldd	r23, Y+2	; 0x02
 546:	80 91 71 00 	lds	r24, 0x0071
 54a:	90 91 72 00 	lds	r25, 0x0072
 54e:	0e 94 0e 01 	call	0x21c	; 0x21c <stepper_do_steps>
 552:	80 91 71 00 	lds	r24, 0x0071
 556:	90 91 72 00 	lds	r25, 0x0072
 55a:	0e 94 3f 01 	call	0x27e	; 0x27e <stepper_is_ready>
 55e:	88 23       	and	r24, r24
 560:	c1 f3       	breq	.-16     	; 0x552 <exec_string+0xea>
 562:	28 96       	adiw	r28, 0x08	; 8
 564:	0f b6       	in	r0, 0x3f	; 63
 566:	f8 94       	cli
 568:	de bf       	out	0x3e, r29	; 62
 56a:	0f be       	out	0x3f, r0	; 63
 56c:	cd bf       	out	0x3d, r28	; 61
 56e:	df 91       	pop	r29
 570:	cf 91       	pop	r28
 572:	1f 91       	pop	r17
 574:	0f 91       	pop	r16
 576:	ff 90       	pop	r15
 578:	ef 90       	pop	r14
 57a:	df 90       	pop	r13
 57c:	08 95       	ret

0000057e <__vector_11>:
 57e:	1f 92       	push	r1
 580:	0f 92       	push	r0
 582:	0f b6       	in	r0, 0x3f	; 63
 584:	0f 92       	push	r0
 586:	11 24       	eor	r1, r1
 588:	1f 93       	push	r17
 58a:	2f 93       	push	r18
 58c:	3f 93       	push	r19
 58e:	4f 93       	push	r20
 590:	5f 93       	push	r21
 592:	6f 93       	push	r22
 594:	7f 93       	push	r23
 596:	8f 93       	push	r24
 598:	9f 93       	push	r25
 59a:	af 93       	push	r26
 59c:	bf 93       	push	r27
 59e:	cf 93       	push	r28
 5a0:	df 93       	push	r29
 5a2:	ef 93       	push	r30
 5a4:	ff 93       	push	r31
 5a6:	80 91 6c 00 	lds	r24, 0x006C
 5aa:	8f 30       	cpi	r24, 0x0F	; 15
 5ac:	08 f4       	brcc	.+2      	; 0x5b0 <__vector_11+0x32>
 5ae:	ad c0       	rjmp	.+346    	; 0x70a <__vector_11+0x18c>
 5b0:	80 91 89 00 	lds	r24, 0x0089
 5b4:	88 23       	and	r24, r24
 5b6:	09 f4       	brne	.+2      	; 0x5ba <__vector_11+0x3c>
 5b8:	9a c0       	rjmp	.+308    	; 0x6ee <__vector_11+0x170>
 5ba:	e0 91 87 00 	lds	r30, 0x0087
 5be:	f0 91 88 00 	lds	r31, 0x0088
 5c2:	80 91 83 00 	lds	r24, 0x0083
 5c6:	90 91 84 00 	lds	r25, 0x0084
 5ca:	e8 17       	cp	r30, r24
 5cc:	f9 07       	cpc	r31, r25
 5ce:	61 f4       	brne	.+24     	; 0x5e8 <__vector_11+0x6a>
 5d0:	20 91 85 00 	lds	r18, 0x0085
 5d4:	30 91 86 00 	lds	r19, 0x0086
 5d8:	80 91 81 00 	lds	r24, 0x0081
 5dc:	90 91 82 00 	lds	r25, 0x0082
 5e0:	28 17       	cp	r18, r24
 5e2:	39 07       	cpc	r19, r25
 5e4:	09 f4       	brne	.+2      	; 0x5e8 <__vector_11+0x6a>
 5e6:	7d c0       	rjmp	.+250    	; 0x6e2 <__vector_11+0x164>
 5e8:	20 91 79 00 	lds	r18, 0x0079
 5ec:	30 91 7a 00 	lds	r19, 0x007A
 5f0:	c9 01       	movw	r24, r18
 5f2:	88 0f       	add	r24, r24
 5f4:	99 1f       	adc	r25, r25
 5f6:	90 93 78 00 	sts	0x0078, r25
 5fa:	80 93 77 00 	sts	0x0077, r24
 5fe:	40 91 7d 00 	lds	r20, 0x007D
 602:	50 91 7e 00 	lds	r21, 0x007E
 606:	66 27       	eor	r22, r22
 608:	77 27       	eor	r23, r23
 60a:	64 1b       	sub	r22, r20
 60c:	75 0b       	sbc	r23, r21
 60e:	68 17       	cp	r22, r24
 610:	79 07       	cpc	r23, r25
 612:	4c f5       	brge	.+82     	; 0x666 <__vector_11+0xe8>
 614:	24 1b       	sub	r18, r20
 616:	35 0b       	sbc	r19, r21
 618:	30 93 7a 00 	sts	0x007A, r19
 61c:	20 93 79 00 	sts	0x0079, r18
 620:	80 91 7c 00 	lds	r24, 0x007C
 624:	99 27       	eor	r25, r25
 626:	87 fd       	sbrc	r24, 7
 628:	90 95       	com	r25
 62a:	e8 0f       	add	r30, r24
 62c:	f9 1f       	adc	r31, r25
 62e:	f0 93 88 00 	sts	0x0088, r31
 632:	e0 93 87 00 	sts	0x0087, r30
 636:	20 91 75 00 	lds	r18, 0x0075
 63a:	30 91 76 00 	lds	r19, 0x0076
 63e:	28 0f       	add	r18, r24
 640:	39 1f       	adc	r19, r25
 642:	30 93 76 00 	sts	0x0076, r19
 646:	20 93 75 00 	sts	0x0075, r18
 64a:	80 91 6d 00 	lds	r24, 0x006D
 64e:	90 91 6e 00 	lds	r25, 0x006E
 652:	61 e0       	ldi	r22, 0x01	; 1
 654:	70 e0       	ldi	r23, 0x00	; 0
 656:	0e 94 0e 01 	call	0x21c	; 0x21c <stepper_do_steps>
 65a:	80 91 6d 00 	lds	r24, 0x006D
 65e:	90 91 6e 00 	lds	r25, 0x006E
 662:	0e 94 4d 01 	call	0x29a	; 0x29a <stepper_update>
 666:	20 91 7f 00 	lds	r18, 0x007F
 66a:	30 91 80 00 	lds	r19, 0x0080
 66e:	80 91 77 00 	lds	r24, 0x0077
 672:	90 91 78 00 	lds	r25, 0x0078
 676:	82 17       	cp	r24, r18
 678:	93 07       	cpc	r25, r19
 67a:	0c f0       	brlt	.+2      	; 0x67e <__vector_11+0x100>
 67c:	44 c0       	rjmp	.+136    	; 0x706 <__vector_11+0x188>
 67e:	80 91 79 00 	lds	r24, 0x0079
 682:	90 91 7a 00 	lds	r25, 0x007A
 686:	82 0f       	add	r24, r18
 688:	93 1f       	adc	r25, r19
 68a:	90 93 7a 00 	sts	0x007A, r25
 68e:	80 93 79 00 	sts	0x0079, r24
 692:	20 91 7b 00 	lds	r18, 0x007B
 696:	33 27       	eor	r19, r19
 698:	27 fd       	sbrc	r18, 7
 69a:	30 95       	com	r19
 69c:	80 91 85 00 	lds	r24, 0x0085
 6a0:	90 91 86 00 	lds	r25, 0x0086
 6a4:	82 0f       	add	r24, r18
 6a6:	93 1f       	adc	r25, r19
 6a8:	90 93 86 00 	sts	0x0086, r25
 6ac:	80 93 85 00 	sts	0x0085, r24
 6b0:	80 91 73 00 	lds	r24, 0x0073
 6b4:	90 91 74 00 	lds	r25, 0x0074
 6b8:	82 0f       	add	r24, r18
 6ba:	93 1f       	adc	r25, r19
 6bc:	90 93 74 00 	sts	0x0074, r25
 6c0:	80 93 73 00 	sts	0x0073, r24
 6c4:	80 91 6f 00 	lds	r24, 0x006F
 6c8:	90 91 70 00 	lds	r25, 0x0070
 6cc:	61 e0       	ldi	r22, 0x01	; 1
 6ce:	70 e0       	ldi	r23, 0x00	; 0
 6d0:	0e 94 0e 01 	call	0x21c	; 0x21c <stepper_do_steps>
 6d4:	80 91 6f 00 	lds	r24, 0x006F
 6d8:	90 91 70 00 	lds	r25, 0x0070
 6dc:	0e 94 4d 01 	call	0x29a	; 0x29a <stepper_update>
 6e0:	12 c0       	rjmp	.+36     	; 0x706 <__vector_11+0x188>
 6e2:	10 92 89 00 	sts	0x0089, r1
 6e6:	81 e0       	ldi	r24, 0x01	; 1
 6e8:	80 93 63 00 	sts	0x0063, r24
 6ec:	0c c0       	rjmp	.+24     	; 0x706 <__vector_11+0x188>
 6ee:	cd e6       	ldi	r28, 0x6D	; 109
 6f0:	d0 e0       	ldi	r29, 0x00	; 0
 6f2:	10 e0       	ldi	r17, 0x00	; 0
 6f4:	89 91       	ld	r24, Y+
 6f6:	99 91       	ld	r25, Y+
 6f8:	00 97       	sbiw	r24, 0x00	; 0
 6fa:	11 f0       	breq	.+4      	; 0x700 <__vector_11+0x182>
 6fc:	0e 94 4d 01 	call	0x29a	; 0x29a <stepper_update>
 700:	1f 5f       	subi	r17, 0xFF	; 255
 702:	13 30       	cpi	r17, 0x03	; 3
 704:	b9 f7       	brne	.-18     	; 0x6f4 <__vector_11+0x176>
 706:	10 92 6c 00 	sts	0x006C, r1
 70a:	80 91 6c 00 	lds	r24, 0x006C
 70e:	8f 5f       	subi	r24, 0xFF	; 255
 710:	80 93 6c 00 	sts	0x006C, r24
 714:	ff 91       	pop	r31
 716:	ef 91       	pop	r30
 718:	df 91       	pop	r29
 71a:	cf 91       	pop	r28
 71c:	bf 91       	pop	r27
 71e:	af 91       	pop	r26
 720:	9f 91       	pop	r25
 722:	8f 91       	pop	r24
 724:	7f 91       	pop	r23
 726:	6f 91       	pop	r22
 728:	5f 91       	pop	r21
 72a:	4f 91       	pop	r20
 72c:	3f 91       	pop	r19
 72e:	2f 91       	pop	r18
 730:	1f 91       	pop	r17
 732:	0f 90       	pop	r0
 734:	0f be       	out	0x3f, r0	; 63
 736:	0f 90       	pop	r0
 738:	1f 90       	pop	r1
 73a:	18 95       	reti

0000073c <main>:
 73c:	8f ef       	ldi	r24, 0xFF	; 255
 73e:	8a bb       	out	0x1a, r24	; 26
 740:	1b ba       	out	0x1b, r1	; 27
 742:	15 ba       	out	0x15, r1	; 21
 744:	84 bb       	out	0x14, r24	; 20
 746:	88 bb       	out	0x18, r24	; 24
 748:	17 ba       	out	0x17, r1	; 23
 74a:	0e 94 9e 01 	call	0x33c	; 0x33c <init_stepper_control_timer>
 74e:	0e 94 49 00 	call	0x92	; 0x92 <serial_init>
 752:	78 94       	sei
 754:	c1 e2       	ldi	r28, 0x21	; 33
 756:	d3 e0       	ldi	r29, 0x03	; 3
 758:	ce 01       	movw	r24, r28
 75a:	6b e3       	ldi	r22, 0x3B	; 59
 75c:	70 e0       	ldi	r23, 0x00	; 0
 75e:	40 e0       	ldi	r20, 0x00	; 0
 760:	0e 94 fc 00 	call	0x1f8	; 0x1f8 <stepper_init>
 764:	d0 93 6e 00 	sts	0x006E, r29
 768:	c0 93 6d 00 	sts	0x006D, r28
 76c:	c9 e1       	ldi	r28, 0x19	; 25
 76e:	d3 e0       	ldi	r29, 0x03	; 3
 770:	ce 01       	movw	r24, r28
 772:	6b e3       	ldi	r22, 0x3B	; 59
 774:	70 e0       	ldi	r23, 0x00	; 0
 776:	41 e0       	ldi	r20, 0x01	; 1
 778:	0e 94 fc 00 	call	0x1f8	; 0x1f8 <stepper_init>
 77c:	d0 93 70 00 	sts	0x0070, r29
 780:	c0 93 6f 00 	sts	0x006F, r28
 784:	c1 e1       	ldi	r28, 0x11	; 17
 786:	d3 e0       	ldi	r29, 0x03	; 3
 788:	ce 01       	movw	r24, r28
 78a:	65 e3       	ldi	r22, 0x35	; 53
 78c:	70 e0       	ldi	r23, 0x00	; 0
 78e:	41 e0       	ldi	r20, 0x01	; 1
 790:	0e 94 fc 00 	call	0x1f8	; 0x1f8 <stepper_init>
 794:	d0 93 72 00 	sts	0x0072, r29
 798:	c0 93 71 00 	sts	0x0071, r28
 79c:	0e 94 19 02 	call	0x432	; 0x432 <receive_buffer_get_string>
 7a0:	0e 94 34 02 	call	0x468	; 0x468 <exec_string>
 7a4:	80 91 63 00 	lds	r24, 0x0063
 7a8:	88 23       	and	r24, r24
 7aa:	c1 f3       	breq	.-16     	; 0x79c <main+0x60>
 7ac:	b0 99       	sbic	0x16, 0	; 22
 7ae:	0f c0       	rjmp	.+30     	; 0x7ce <main+0x92>
 7b0:	80 91 6d 00 	lds	r24, 0x006D
 7b4:	90 91 6e 00 	lds	r25, 0x006E
 7b8:	61 e0       	ldi	r22, 0x01	; 1
 7ba:	0e 94 22 01 	call	0x244	; 0x244 <stepper_set_direction>
 7be:	80 91 6d 00 	lds	r24, 0x006D
 7c2:	90 91 6e 00 	lds	r25, 0x006E
 7c6:	62 e0       	ldi	r22, 0x02	; 2
 7c8:	70 e0       	ldi	r23, 0x00	; 0
 7ca:	0e 94 0e 01 	call	0x21c	; 0x21c <stepper_do_steps>
 7ce:	b1 99       	sbic	0x16, 1	; 22
 7d0:	0f c0       	rjmp	.+30     	; 0x7f0 <main+0xb4>
 7d2:	80 91 6d 00 	lds	r24, 0x006D
 7d6:	90 91 6e 00 	lds	r25, 0x006E
 7da:	6f ef       	ldi	r22, 0xFF	; 255
 7dc:	0e 94 22 01 	call	0x244	; 0x244 <stepper_set_direction>
 7e0:	80 91 6d 00 	lds	r24, 0x006D
 7e4:	90 91 6e 00 	lds	r25, 0x006E
 7e8:	62 e0       	ldi	r22, 0x02	; 2
 7ea:	70 e0       	ldi	r23, 0x00	; 0
 7ec:	0e 94 0e 01 	call	0x21c	; 0x21c <stepper_do_steps>
 7f0:	b2 99       	sbic	0x16, 2	; 22
 7f2:	0f c0       	rjmp	.+30     	; 0x812 <main+0xd6>
 7f4:	80 91 71 00 	lds	r24, 0x0071
 7f8:	90 91 72 00 	lds	r25, 0x0072
 7fc:	61 e0       	ldi	r22, 0x01	; 1
 7fe:	0e 94 22 01 	call	0x244	; 0x244 <stepper_set_direction>
 802:	80 91 71 00 	lds	r24, 0x0071
 806:	90 91 72 00 	lds	r25, 0x0072
 80a:	62 e0       	ldi	r22, 0x02	; 2
 80c:	70 e0       	ldi	r23, 0x00	; 0
 80e:	0e 94 0e 01 	call	0x21c	; 0x21c <stepper_do_steps>
 812:	b3 99       	sbic	0x16, 3	; 22
 814:	c3 cf       	rjmp	.-122    	; 0x79c <main+0x60>
 816:	80 91 71 00 	lds	r24, 0x0071
 81a:	90 91 72 00 	lds	r25, 0x0072
 81e:	6f ef       	ldi	r22, 0xFF	; 255
 820:	0e 94 22 01 	call	0x244	; 0x244 <stepper_set_direction>
 824:	80 91 71 00 	lds	r24, 0x0071
 828:	90 91 72 00 	lds	r25, 0x0072
 82c:	62 e0       	ldi	r22, 0x02	; 2
 82e:	70 e0       	ldi	r23, 0x00	; 0
 830:	0e 94 0e 01 	call	0x21c	; 0x21c <stepper_do_steps>
 834:	b3 cf       	rjmp	.-154    	; 0x79c <main+0x60>

00000836 <atoi>:
 836:	fc 01       	movw	r30, r24
 838:	88 27       	eor	r24, r24
 83a:	99 27       	eor	r25, r25
 83c:	e8 94       	clt
 83e:	21 91       	ld	r18, Z+
 840:	20 32       	cpi	r18, 0x20	; 32
 842:	e9 f3       	breq	.-6      	; 0x83e <atoi+0x8>
 844:	29 30       	cpi	r18, 0x09	; 9
 846:	10 f0       	brcs	.+4      	; 0x84c <atoi+0x16>
 848:	2e 30       	cpi	r18, 0x0E	; 14
 84a:	c8 f3       	brcs	.-14     	; 0x83e <atoi+0x8>
 84c:	2b 32       	cpi	r18, 0x2B	; 43
 84e:	41 f0       	breq	.+16     	; 0x860 <__stack+0x1>
 850:	2d 32       	cpi	r18, 0x2D	; 45
 852:	39 f4       	brne	.+14     	; 0x862 <__stack+0x3>
 854:	68 94       	set
 856:	04 c0       	rjmp	.+8      	; 0x860 <__stack+0x1>
 858:	0e 94 65 04 	call	0x8ca	; 0x8ca <__mulhi_const_10>
 85c:	82 0f       	add	r24, r18
 85e:	91 1d       	adc	r25, r1
 860:	21 91       	ld	r18, Z+
 862:	20 53       	subi	r18, 0x30	; 48
 864:	2a 30       	cpi	r18, 0x0A	; 10
 866:	c0 f3       	brcs	.-16     	; 0x858 <atoi+0x22>
 868:	1e f4       	brtc	.+6      	; 0x870 <__stack+0x11>
 86a:	90 95       	com	r25
 86c:	81 95       	neg	r24
 86e:	9f 4f       	sbci	r25, 0xFF	; 255
 870:	08 95       	ret

00000872 <strtok>:
 872:	4f e0       	ldi	r20, 0x0F	; 15
 874:	53 e0       	ldi	r21, 0x03	; 3
 876:	0e 94 3e 04 	call	0x87c	; 0x87c <strtok_r>
 87a:	08 95       	ret

0000087c <strtok_r>:
 87c:	fa 01       	movw	r30, r20
 87e:	a1 91       	ld	r26, Z+
 880:	b0 81       	ld	r27, Z
 882:	00 97       	sbiw	r24, 0x00	; 0
 884:	19 f4       	brne	.+6      	; 0x88c <strtok_r+0x10>
 886:	10 97       	sbiw	r26, 0x00	; 0
 888:	e1 f0       	breq	.+56     	; 0x8c2 <strtok_r+0x46>
 88a:	cd 01       	movw	r24, r26
 88c:	dc 01       	movw	r26, r24
 88e:	cd 01       	movw	r24, r26
 890:	0d 90       	ld	r0, X+
 892:	00 20       	and	r0, r0
 894:	11 f4       	brne	.+4      	; 0x89a <strtok_r+0x1e>
 896:	c0 01       	movw	r24, r0
 898:	13 c0       	rjmp	.+38     	; 0x8c0 <strtok_r+0x44>
 89a:	fb 01       	movw	r30, r22
 89c:	21 91       	ld	r18, Z+
 89e:	22 23       	and	r18, r18
 8a0:	19 f0       	breq	.+6      	; 0x8a8 <strtok_r+0x2c>
 8a2:	20 15       	cp	r18, r0
 8a4:	d9 f7       	brne	.-10     	; 0x89c <strtok_r+0x20>
 8a6:	f3 cf       	rjmp	.-26     	; 0x88e <strtok_r+0x12>
 8a8:	fb 01       	movw	r30, r22
 8aa:	21 91       	ld	r18, Z+
 8ac:	20 15       	cp	r18, r0
 8ae:	19 f4       	brne	.+6      	; 0x8b6 <strtok_r+0x3a>
 8b0:	1e 92       	st	-X, r1
 8b2:	11 96       	adiw	r26, 0x01	; 1
 8b4:	06 c0       	rjmp	.+12     	; 0x8c2 <strtok_r+0x46>
 8b6:	22 23       	and	r18, r18
 8b8:	c1 f7       	brne	.-16     	; 0x8aa <strtok_r+0x2e>
 8ba:	0d 90       	ld	r0, X+
 8bc:	00 20       	and	r0, r0
 8be:	a1 f7       	brne	.-24     	; 0x8a8 <strtok_r+0x2c>
 8c0:	d0 01       	movw	r26, r0
 8c2:	fa 01       	movw	r30, r20
 8c4:	a1 93       	st	Z+, r26
 8c6:	b0 83       	st	Z, r27
 8c8:	08 95       	ret

000008ca <__mulhi_const_10>:
 8ca:	7a e0       	ldi	r23, 0x0A	; 10
 8cc:	97 9f       	mul	r25, r23
 8ce:	90 2d       	mov	r25, r0
 8d0:	87 9f       	mul	r24, r23
 8d2:	80 2d       	mov	r24, r0
 8d4:	91 0d       	add	r25, r1
 8d6:	11 24       	eor	r1, r1
 8d8:	08 95       	ret

000008da <_exit>:
 8da:	f8 94       	cli

000008dc <__stop_program>:
 8dc:	ff cf       	rjmp	.-2      	; 0x8dc <__stop_program>
